target datalayout = "e-m:e-p270:32:32-p271:32:32-p272:64:64-i64:64-i128:128-f80:128-n8:16:32:64-S128"
target triple = "x86_64-pc-linux-gnu"

%class.ErrorHandler = type <{ i32, i32, i8, i8, i8, i8, i8, i8, [2 x i8] }>
%class.RAROptions = type { i32, i32, i8, i8, i8, i64, [2048 x i32], [2048 x i32], i32, i8, [2048 x i32], [2048 x i32], i32, i32, i32, i32, [2048 x i32], [2048 x i32], i8, i8, i8, [2048 x i32], i32, i32, i32, i32, i32, i32, i32, i32, i8, i8, i8, i8, i8, i32, i32, i8, i8, i8, i8, i8, i32, i32, i64, i32, i8, i8, i8, i32, i32, i8, i8, i8, i8, i32, i32, i8, i8, i8, i8, [128 x i32], [128 x i32], i8, i8, i8, i8, i8, %class.RarTime, %class.RarTime, %class.RarTime, i8, i8, i8, %class.RarTime, %class.RarTime, %class.RarTime, i8, i8, i8, i64, i64, i8, i8, i8, [16 x %struct.FilterMode], [2048 x i32], i32, i32, i32, i32, i32, i32, i8, [2048 x i32], i32, [2048 x i32], i32, i32, i64, ptr, ptr, ptr }
%class.RarTime = type { i64 }
%struct.FilterMode = type { i32, i32, i32 }
%class.uiMsgStore = type <{ [8 x ptr], [8 x i32], i32, i32, i32, [4 x i8] }>
%struct.timespec = type { i64, i64 }

@ErrHandler = external global %class.ErrorHandler, align 4
@.str.3 = private unnamed_addr constant [1 x i32] zeroinitializer, align 4

; Function Attrs: inlinehint mustprogress nounwind uwtable
define linkonce_odr void @_Z9uiMsgBaseR10uiMsgStore(ptr noundef nonnull align 8 dereferenceable(108) %0) #4 comdat {
  %2 = alloca ptr, align 8
  store ptr %0, ptr %2, align 8, !tbaa !132
  ret void
}

; Function Attrs: mustprogress nounwind uwtable
define linkonce_odr noundef nonnull align 8 dereferenceable(108) ptr @_ZN10uiMsgStorelsEPKw(ptr noundef nonnull align 8 dereferenceable(108) %0, ptr noundef %1) #7 comdat align 2 {
  %3 = alloca ptr, align 8
  %4 = alloca ptr, align 8
  store ptr %0, ptr %3, align 8, !tbaa !132
  store ptr %1, ptr %4, align 8, !tbaa !8
  %5 = load ptr, ptr %3, align 8
  %6 = getelementptr inbounds nuw %class.uiMsgStore, ptr %5, i32 0, i32 2
  %7 = load i32, ptr %6, align 8, !tbaa !135
  %8 = zext i32 %7 to i64
  %9 = icmp ult i64 %8, 8
  br i1 %9, label %10, label %18

10:                                               ; preds = %2
  %11 = load ptr, ptr %4, align 8, !tbaa !8
  %12 = getelementptr inbounds nuw %class.uiMsgStore, ptr %5, i32 0, i32 0
  %13 = getelementptr inbounds nuw %class.uiMsgStore, ptr %5, i32 0, i32 2
  %14 = load i32, ptr %13, align 8, !tbaa !135
  %15 = add i32 %14, 1
  store i32 %15, ptr %13, align 8, !tbaa !135
  %16 = zext i32 %14 to i64
  %17 = getelementptr inbounds nuw [8 x ptr], ptr %12, i64 0, i64 %16
  store ptr %11, ptr %17, align 8, !tbaa !8
  br label %18

18:                                               ; preds = %10, %2
  ret ptr %5
}

; Function Attrs: mustprogress uwtable
define linkonce_odr void @_Z9uiMsgBaseIRPwJRPKwEEvR10uiMsgStoreOT_DpOT0_(ptr noundef nonnull align 8 dereferenceable(108) %0, ptr noundef nonnull align 8 dereferenceable(8) %1, ptr noundef nonnull align 8 dereferenceable(8) %2) #0 comdat {
  %4 = alloca ptr, align 8
  %5 = alloca ptr, align 8
  %6 = alloca ptr, align 8
  store ptr %0, ptr %4, align 8, !tbaa !132
  store ptr %1, ptr %5, align 8, !tbaa !34
  store ptr %2, ptr %6, align 8, !tbaa !34
  %7 = load ptr, ptr %4, align 8, !tbaa !132
  %8 = load ptr, ptr %5, align 8, !tbaa !34
  %9 = load ptr, ptr %8, align 8, !tbaa !8
  %10 = call noundef nonnull align 8 dereferenceable(108) ptr @_ZN10uiMsgStorelsEPKw(ptr noundef nonnull align 8 dereferenceable(108) %7, ptr noundef %9)
  %11 = load ptr, ptr %4, align 8, !tbaa !132
  %12 = load ptr, ptr %6, align 8, !tbaa !34
  call void @_Z9uiMsgBaseIRPKwJEEvR10uiMsgStoreOT_DpOT0_(ptr noundef nonnull align 8 dereferenceable(108) %11, ptr noundef nonnull align 8 dereferenceable(8) %12)
  ret void
}

; Function Attrs: mustprogress uwtable
define linkonce_odr void @_Z9uiMsgBaseIRPKwJEEvR10uiMsgStoreOT_DpOT0_(ptr noundef nonnull align 8 dereferenceable(108) %0, ptr noundef nonnull align 8 dereferenceable(8) %1) #0 comdat {
  %3 = alloca ptr, align 8
  %4 = alloca ptr, align 8
  store ptr %0, ptr %3, align 8, !tbaa !132
  store ptr %1, ptr %4, align 8, !tbaa !34
  %5 = load ptr, ptr %3, align 8, !tbaa !132
  %6 = load ptr, ptr %4, align 8, !tbaa !34
  %7 = load ptr, ptr %6, align 8, !tbaa !8
  %8 = call noundef nonnull align 8 dereferenceable(108) ptr @_ZN10uiMsgStorelsEPKw(ptr noundef nonnull align 8 dereferenceable(108) %5, ptr noundef %7)
  %9 = load ptr, ptr %3, align 8, !tbaa !132
  call void @_Z9uiMsgBaseR10uiMsgStore(ptr noundef nonnull align 8 dereferenceable(108) %9)
  ret void
}

; Function Attrs: mustprogress nounwind uwtable
define linkonce_odr void @_ZN10uiMsgStoreC2E14UIMESSAGE_CODE(ptr noundef nonnull align 8 dereferenceable(108) %0, i32 noundef %1) unnamed_addr #7 comdat align 2 {
  %3 = alloca ptr, align 8
  %4 = alloca i32, align 4
  %5 = alloca i32, align 4
  store ptr %0, ptr %3, align 8, !tbaa !132
  store i32 %1, ptr %4, align 4, !tbaa !32
  %6 = load ptr, ptr %3, align 8
  call void @llvm.lifetime.start.p0(i64 4, ptr %5) #11
  store i32 0, ptr %5, align 4, !tbaa !87
  br label %7

7:                                                ; preds = %17, %2
  %8 = load i32, ptr %5, align 4, !tbaa !87
  %9 = zext i32 %8 to i64
  %10 = icmp ult i64 %9, 8
  br i1 %10, label %12, label %11

11:                                               ; preds = %7
  call void @llvm.lifetime.end.p0(i64 4, ptr %5) #11
  br label %20

12:                                               ; preds = %7
  %13 = getelementptr inbounds nuw %class.uiMsgStore, ptr %6, i32 0, i32 0
  %14 = load i32, ptr %5, align 4, !tbaa !87
  %15 = zext i32 %14 to i64
  %16 = getelementptr inbounds nuw [8 x ptr], ptr %13, i64 0, i64 %15
  store ptr @.str.3, ptr %16, align 8, !tbaa !8
  br label %17

17:                                               ; preds = %12
  %18 = load i32, ptr %5, align 4, !tbaa !87
  %19 = add i32 %18, 1
  store i32 %19, ptr %5, align 4, !tbaa !87
  br label %7, !llvm.loop !134

20:                                               ; preds = %11
  %21 = getelementptr inbounds nuw %class.uiMsgStore, ptr %6, i32 0, i32 1
  %22 = getelementptr inbounds [8 x i32], ptr %21, i64 0, i64 0
  call void @llvm.memset.p0.i64(ptr align 8 %22, i8 0, i64 32, i1 false)
  %23 = getelementptr inbounds nuw %class.uiMsgStore, ptr %6, i32 0, i32 2
  store i32 0, ptr %23, align 8, !tbaa !135
  %24 = getelementptr inbounds nuw %class.uiMsgStore, ptr %6, i32 0, i32 3
  store i32 0, ptr %24, align 4, !tbaa !137
  %25 = load i32, ptr %4, align 4, !tbaa !32
  %26 = getelementptr inbounds nuw %class.uiMsgStore, ptr %6, i32 0, i32 4
  store i32 %25, ptr %26, align 8, !tbaa !138
  ret void
}

; Function Attrs: mustprogress nounwind uwtable
define linkonce_odr noundef zeroext i1 @_ZN7RarTime5IsSetEv(ptr noundef nonnull align 8 dereferenceable(8) %0) #7 comdat align 2 {
  %2 = alloca ptr, align 8
  store ptr %0, ptr %2, align 8, !tbaa !124
  %3 = load ptr, ptr %2, align 8
  %4 = getelementptr inbounds nuw %class.RarTime, ptr %3, i32 0, i32 0
  %5 = load i64, ptr %4, align 8, !tbaa !126
  %6 = icmp ne i64 %5, 0
  ret i1 %6
}

; Function Attrs: mustprogress uwtable
define linkonce_odr void @_Z5uiMsgIJPwRPKwEEv14UIMESSAGE_CODEDpOT_(i32 noundef %0, ptr noundef nonnull align 8 dereferenceable(8) %1, ptr noundef nonnull align 8 dereferenceable(8) %2) #0 comdat {
  %4 = alloca i32, align 4
  %5 = alloca ptr, align 8
  %6 = alloca ptr, align 8
  %7 = alloca %class.uiMsgStore, align 8
  store i32 %0, ptr %4, align 4, !tbaa !32
  store ptr %1, ptr %5, align 8, !tbaa !34
  store ptr %2, ptr %6, align 8, !tbaa !34
  call void @llvm.lifetime.start.p0(i64 112, ptr %7) #11
  %8 = load i32, ptr %4, align 4, !tbaa !32
  call void @_ZN10uiMsgStoreC2E14UIMESSAGE_CODE(ptr noundef nonnull align 8 dereferenceable(108) %7, i32 noundef %8)
  %9 = load ptr, ptr %5, align 8, !tbaa !34
  %10 = load ptr, ptr %6, align 8, !tbaa !34
  call void @_Z9uiMsgBaseIRPwJRPKwEEvR10uiMsgStoreOT_DpOT0_(ptr noundef nonnull align 8 dereferenceable(108) %7, ptr noundef nonnull align 8 dereferenceable(8) %9, ptr noundef nonnull align 8 dereferenceable(8) %10)
  call void @_ZN10uiMsgStore3MsgEv(ptr noundef nonnull align 8 dereferenceable(108) %7)
  call void @llvm.lifetime.end.p0(i64 112, ptr %7) #11
  ret void
}

; Function Attrs: mustprogress uwtable
define linkonce_odr void @_Z5uiMsgIJRPKwEEv14UIMESSAGE_CODEDpOT_(i32 noundef %0, ptr noundef nonnull align 8 dereferenceable(8) %1) #0 comdat {
  %3 = alloca i32, align 4
  %4 = alloca ptr, align 8
  %5 = alloca %class.uiMsgStore, align 8
  store i32 %0, ptr %3, align 4, !tbaa !32
  store ptr %1, ptr %4, align 8, !tbaa !34
  call void @llvm.lifetime.start.p0(i64 112, ptr %5) #11
  %6 = load i32, ptr %3, align 4, !tbaa !32
  call void @_ZN10uiMsgStoreC2E14UIMESSAGE_CODE(ptr noundef nonnull align 8 dereferenceable(108) %5, i32 noundef %6)
  %7 = load ptr, ptr %4, align 8, !tbaa !34
  call void @_Z9uiMsgBaseIRPKwJEEvR10uiMsgStoreOT_DpOT0_(ptr noundef nonnull align 8 dereferenceable(108) %5, ptr noundef nonnull align 8 dereferenceable(8) %7)
  call void @_ZN10uiMsgStore3MsgEv(ptr noundef nonnull align 8 dereferenceable(108) %5)
  call void @llvm.lifetime.end.p0(i64 112, ptr %5) #11
  ret void
}

; Function Attrs: mustprogress uwtable
define internal noundef zeroext i1 @_ZL11UnixSymlinkP11CommandDataPKcPKwP7RarTimeS6_(ptr noundef %0, ptr noundef %1, ptr noundef %2, ptr noundef %3, ptr noundef %4) #0 {
  %6 = alloca i1, align 1
  %7 = alloca ptr, align 8
  %8 = alloca ptr, align 8
  %9 = alloca ptr, align 8
  %10 = alloca ptr, align 8
  %11 = alloca ptr, align 8
  %12 = alloca [2048 x i8], align 16
  %13 = alloca ptr, align 8
  %14 = alloca i32, align 4
  %15 = alloca [2 x %struct.timespec], align 16
  store ptr %0, ptr %7, align 8, !tbaa !3
  store ptr %1, ptr %8, align 8, !tbaa !38
  store ptr %2, ptr %9, align 8, !tbaa !8
  store ptr %3, ptr %10, align 8, !tbaa !124
  store ptr %4, ptr %11, align 8, !tbaa !124
  %16 = load ptr, ptr %9, align 8, !tbaa !8
  %17 = load ptr, ptr %7, align 8, !tbaa !3
  %18 = getelementptr inbounds nuw %class.RAROptions, ptr %17, i32 0, i32 33
  %19 = load i8, ptr %18, align 1, !tbaa !12, !range !29, !noundef !30
  %20 = trunc i8 %19 to i1
  %21 = call noundef zeroext i1 @_Z10CreatePathPKwbb(ptr noundef %16, i1 noundef zeroext true, i1 noundef zeroext %20)
  %22 = load ptr, ptr %9, align 8, !tbaa !8
  %23 = call noundef zeroext i1 @_Z7DelFilePKw(ptr noundef %22)
  call void @llvm.lifetime.start.p0(i64 2048, ptr %12) #11
  %24 = load ptr, ptr %9, align 8, !tbaa !8
  %25 = getelementptr inbounds [2048 x i8], ptr %12, i64 0, i64 0
  %26 = call noundef zeroext i1 @_Z10WideToCharPKwPcm(ptr noundef %24, ptr noundef %25, i64 noundef 2048)
  %27 = load ptr, ptr %8, align 8, !tbaa !38
  %28 = getelementptr inbounds [2048 x i8], ptr %12, i64 0, i64 0
  %29 = call i32 @symlink(ptr noundef %27, ptr noundef %28) #11
  %30 = icmp eq i32 %29, -1
  br i1 %30, label %31, label %38

31:                                               ; preds = %5
  %32 = call ptr @__errno_location() #13
  %33 = load i32, ptr %32, align 4, !tbaa !87
  %34 = icmp eq i32 %33, 17
  br i1 %34, label %35, label %36

35:                                               ; preds = %31
  call void @_Z5uiMsgIJRPKwEEv14UIMESSAGE_CODEDpOT_(i32 noundef 94, ptr noundef nonnull align 8 dereferenceable(8) %9)
  br label %37

36:                                               ; preds = %31
  call void @llvm.lifetime.start.p0(i64 8, ptr %13) #11
  store ptr null, ptr %13, align 8, !tbaa !8
  call void @_Z5uiMsgIJPwRPKwEEv14UIMESSAGE_CODEDpOT_(i32 noundef 21, ptr noundef nonnull align 8 dereferenceable(8) %13, ptr noundef nonnull align 8 dereferenceable(8) %9)
  call void @llvm.lifetime.end.p0(i64 8, ptr %13) #11
  call void @_ZN12ErrorHandler12SetErrorCodeE8RAR_EXIT(ptr noundef nonnull align 4 dereferenceable(14) @ErrHandler, i32 noundef 1)
  br label %37

37:                                               ; preds = %36, %35
  store i1 false, ptr %6, align 1
  store i32 1, ptr %14, align 4
  br label %72

38:                                               ; preds = %5
  call void @llvm.lifetime.start.p0(i64 32, ptr %15) #11
  %39 = load ptr, ptr %11, align 8, !tbaa !124
  %40 = call noundef i64 @_ZN7RarTime7GetUnixEv(ptr noundef nonnull align 8 dereferenceable(8) %39)
  %41 = getelementptr inbounds [2 x %struct.timespec], ptr %15, i64 0, i64 0
  %42 = getelementptr inbounds nuw %struct.timespec, ptr %41, i32 0, i32 0
  store i64 %40, ptr %42, align 16, !tbaa !129
  %43 = load ptr, ptr %11, align 8, !tbaa !124
  %44 = call noundef zeroext i1 @_ZN7RarTime5IsSetEv(ptr noundef nonnull align 8 dereferenceable(8) %43)
  br i1 %44, label %45, label %49

45:                                               ; preds = %38
  %46 = load ptr, ptr %11, align 8, !tbaa !124
  %47 = call noundef i64 @_ZN7RarTime9GetUnixNSEv(ptr noundef nonnull align 8 dereferenceable(8) %46)
  %48 = urem i64 %47, 1000000000
  br label %50

49:                                               ; preds = %38
  br label %50

50:                                               ; preds = %49, %45
  %51 = phi i64 [ %48, %45 ], [ 1073741823, %49 ]
  %52 = getelementptr inbounds [2 x %struct.timespec], ptr %15, i64 0, i64 0
  %53 = getelementptr inbounds nuw %struct.timespec, ptr %52, i32 0, i32 1
  store i64 %51, ptr %53, align 8, !tbaa !131
  %54 = load ptr, ptr %10, align 8, !tbaa !124
  %55 = call noundef i64 @_ZN7RarTime7GetUnixEv(ptr noundef nonnull align 8 dereferenceable(8) %54)
  %56 = getelementptr inbounds [2 x %struct.timespec], ptr %15, i64 0, i64 1
  %57 = getelementptr inbounds nuw %struct.timespec, ptr %56, i32 0, i32 0
  store i64 %55, ptr %57, align 16, !tbaa !129
  %58 = load ptr, ptr %10, align 8, !tbaa !124
  %59 = call noundef zeroext i1 @_ZN7RarTime5IsSetEv(ptr noundef nonnull align 8 dereferenceable(8) %58)
  br i1 %59, label %60, label %64

60:                                               ; preds = %50
  %61 = load ptr, ptr %10, align 8, !tbaa !124
  %62 = call noundef i64 @_ZN7RarTime9GetUnixNSEv(ptr noundef nonnull align 8 dereferenceable(8) %61)
  %63 = urem i64 %62, 1000000000
  br label %65

64:                                               ; preds = %50
  br label %65

65:                                               ; preds = %64, %60
  %66 = phi i64 [ %63, %60 ], [ 1073741823, %64 ]
  %67 = getelementptr inbounds [2 x %struct.timespec], ptr %15, i64 0, i64 1
  %68 = getelementptr inbounds nuw %struct.timespec, ptr %67, i32 0, i32 1
  store i64 %66, ptr %68, align 8, !tbaa !131
  %69 = getelementptr inbounds [2048 x i8], ptr %12, i64 0, i64 0
  %70 = getelementptr inbounds [2 x %struct.timespec], ptr %15, i64 0, i64 0
  %71 = call i32 @utimensat(i32 noundef -100, ptr noundef %69, ptr noundef %70, i32 noundef 256) #11
  store i1 true, ptr %6, align 1
  store i32 1, ptr %14, align 4
  call void @llvm.lifetime.end.p0(i64 32, ptr %15) #11
  br label %72

72:                                               ; preds = %65, %37
  call void @llvm.lifetime.end.p0(i64 2048, ptr %12) #11
  %73 = load i1, ptr %6, align 1
  ret i1 %73
}