; Function Attrs: mustprogress uwtable
define internal fastcc noundef zeroext i1 @_ZL11UnixSymlinkP11CommandDataPKcPKwP7RarTimeS6_(i8 %.57431.val, ptr noundef nonnull %0, ptr noundef %1, ptr noundef nonnull %2, ptr noundef nonnull %3) unnamed_addr #0 {
  %5 = alloca %class.uiMsgStore, align 8
  %6 = alloca %class.uiMsgStore, align 8
  %7 = alloca [2048 x i8], align 16
  %8 = alloca [2 x %struct.timespec], align 16
  %9 = trunc nuw i8 %.57431.val to i1
  %10 = tail call noundef zeroext i1 @_Z10CreatePathPKwbb(ptr noundef %1, i1 noundef zeroext true, i1 noundef zeroext %9)
  %11 = tail call noundef zeroext i1 @_Z7DelFilePKw(ptr noundef %1)
  call void @llvm.lifetime.start.p0(i64 2048, ptr nonnull %7) #13
  %12 = call noundef zeroext i1 @_Z10WideToCharPKwPcm(ptr noundef %1, ptr noundef nonnull %7, i64 noundef 2048)
  %13 = call i32 @symlink(ptr noundef nonnull %0, ptr noundef nonnull %7) #13
  %14 = icmp ne i32 %13, -1
  br i1 %14, label %32, label %15

15:                                               ; preds = %4
  %16 = tail call ptr @__errno_location() #15
  %17 = load i32, ptr %16, align 4, !tbaa !109
  %18 = icmp eq i32 %17, 17
  br i1 %18, label %19, label %25

19:                                               ; preds = %15
  call void @llvm.lifetime.start.p0(i64 112, ptr nonnull %6) #13
  br label %20

20:                                               ; preds = %20, %19
  %indvars.iv.i.i = phi i64 [ 0, %19 ], [ %indvars.iv.next.i.i, %20 ]
  %21 = getelementptr inbounds nuw [8 x ptr], ptr %6, i64 0, i64 %indvars.iv.i.i
  store ptr @.str.3, ptr %21, align 8, !tbaa !3
  %indvars.iv.next.i.i = add nuw nsw i64 %indvars.iv.i.i, 1
  %exitcond.not.i.i = icmp eq i64 %indvars.iv.next.i.i, 8
  br i1 %exitcond.not.i.i, label %_Z5uiMsgIJRPKwEEv14UIMESSAGE_CODEDpOT_.exit, label %20, !llvm.loop !8

_Z5uiMsgIJRPKwEEv14UIMESSAGE_CODEDpOT_.exit:      ; preds = %20
  %22 = getelementptr inbounds nuw i8, ptr %6, i64 64
  %23 = getelementptr inbounds nuw i8, ptr %6, i64 104
  call void @llvm.memset.p0.i64(ptr noundef nonnull align 8 dereferenceable(40) %22, i8 0, i64 40, i1 false)
  store i32 94, ptr %23, align 8, !tbaa !10
  %24 = getelementptr inbounds nuw i8, ptr %6, i64 96
  store i32 1, ptr %24, align 8, !tbaa !14
  store ptr %1, ptr %6, align 8, !tbaa !3
  call void @_ZN10uiMsgStore3MsgEv(ptr noundef nonnull align 8 dereferenceable(108) %6)
  call void @llvm.lifetime.end.p0(i64 112, ptr nonnull %6) #13
  br label %51

25:                                               ; preds = %15
  call void @llvm.lifetime.start.p0(i64 112, ptr nonnull %5) #13
  br label %26

26:                                               ; preds = %26, %25
  %indvars.iv.i.i9 = phi i64 [ 0, %25 ], [ %indvars.iv.next.i.i10, %26 ]
  %27 = getelementptr inbounds nuw [8 x ptr], ptr %5, i64 0, i64 %indvars.iv.i.i9
  store ptr @.str.3, ptr %27, align 8, !tbaa !3
  %indvars.iv.next.i.i10 = add nuw nsw i64 %indvars.iv.i.i9, 1
  %exitcond.not.i.i11 = icmp eq i64 %indvars.iv.next.i.i10, 8
  br i1 %exitcond.not.i.i11, label %_Z5uiMsgIJPwRPKwEEv14UIMESSAGE_CODEDpOT_.exit, label %26, !llvm.loop !8

_Z5uiMsgIJPwRPKwEEv14UIMESSAGE_CODEDpOT_.exit:    ; preds = %26
  %28 = getelementptr inbounds nuw i8, ptr %5, i64 64
  %29 = getelementptr inbounds nuw i8, ptr %5, i64 104
  call void @llvm.memset.p0.i64(ptr noundef nonnull align 8 dereferenceable(40) %28, i8 0, i64 40, i1 false)
  store i32 21, ptr %29, align 8, !tbaa !10
  %30 = getelementptr inbounds nuw i8, ptr %5, i64 96
  store ptr null, ptr %5, align 8, !tbaa !3
  store i32 2, ptr %30, align 8, !tbaa !14
  %31 = getelementptr inbounds nuw i8, ptr %5, i64 8
  store ptr %1, ptr %31, align 8, !tbaa !3
  call void @_ZN10uiMsgStore3MsgEv(ptr noundef nonnull align 8 dereferenceable(108) %5)
  call void @llvm.lifetime.end.p0(i64 112, ptr nonnull %5) #13
  call void @_ZN12ErrorHandler12SetErrorCodeE8RAR_EXIT(ptr noundef nonnull align 4 dereferenceable(14) @ErrHandler, i32 noundef 1)
  br label %51

32:                                               ; preds = %4
  call void @llvm.lifetime.start.p0(i64 32, ptr nonnull %8) #13
  %33 = call noundef i64 @_ZN7RarTime7GetUnixEv(ptr noundef nonnull align 8 dereferenceable(8) %3)
  store i64 %33, ptr %8, align 16, !tbaa !110
  %34 = load i64, ptr %3, align 8, !tbaa !112
  %.not = icmp eq i64 %34, 0
  br i1 %.not, label %38, label %35

35:                                               ; preds = %32
  %36 = call noundef i64 @_ZN7RarTime9GetUnixNSEv(ptr noundef nonnull align 8 dereferenceable(8) %3)
  %37 = urem i64 %36, 1000000000
  br label %38

38:                                               ; preds = %32, %35
  %39 = phi i64 [ %37, %35 ], [ 1073741823, %32 ]
  %40 = getelementptr inbounds nuw i8, ptr %8, i64 8
  store i64 %39, ptr %40, align 8, !tbaa !113
  %41 = call noundef i64 @_ZN7RarTime7GetUnixEv(ptr noundef nonnull align 8 dereferenceable(8) %2)
  %42 = getelementptr inbounds nuw i8, ptr %8, i64 16
  store i64 %41, ptr %42, align 16, !tbaa !110
  %43 = load i64, ptr %2, align 8, !tbaa !112
  %.not5 = icmp eq i64 %43, 0
  br i1 %.not5, label %47, label %44

44:                                               ; preds = %38
  %45 = call noundef i64 @_ZN7RarTime9GetUnixNSEv(ptr noundef nonnull align 8 dereferenceable(8) %2)
  %46 = urem i64 %45, 1000000000
  br label %47

47:                                               ; preds = %38, %44
  %48 = phi i64 [ %46, %44 ], [ 1073741823, %38 ]
  %49 = getelementptr inbounds nuw i8, ptr %8, i64 24
  store i64 %48, ptr %49, align 8, !tbaa !113
  %50 = call i32 @utimensat(i32 noundef -100, ptr noundef nonnull %7, ptr noundef nonnull %8, i32 noundef 256) #13
  call void @llvm.lifetime.end.p0(i64 32, ptr nonnull %8) #13
  br label %51

51:                                               ; preds = %_Z5uiMsgIJRPKwEEv14UIMESSAGE_CODEDpOT_.exit, %_Z5uiMsgIJPwRPKwEEv14UIMESSAGE_CODEDpOT_.exit, %47
  call void @llvm.lifetime.end.p0(i64 2048, ptr nonnull %7) #13
  ret i1 %14
}